target datalayout = "e-m:e-p270:32:32-p271:32:32-p272:64:64-i64:64-i128:128-f80:128-n8:16:32:64-S128"
target triple = "x86_64-pc-linux-gnu"

%struct.bf_t = type { ptr, i32, i64, i64, ptr }

; Function Attrs: inlinehint nounwind uwtable
define internal i64 @get_bits(ptr noundef %0, i64 noundef %1, i64 noundef %2) #3 {
  %4 = alloca i64, align 8
  %5 = alloca ptr, align 8
  %6 = alloca i64, align 8
  %7 = alloca i64, align 8
  %8 = alloca i64, align 8
  %9 = alloca i64, align 8
  %10 = alloca i64, align 8
  %11 = alloca i32, align 4
  %12 = alloca i32, align 4
  store ptr %0, ptr %5, align 8, !tbaa !28
  store i64 %1, ptr %6, align 8, !tbaa !27
  store i64 %2, ptr %7, align 8, !tbaa !27
  call void @llvm.lifetime.start.p0(i64 8, ptr %8) #10
  call void @llvm.lifetime.start.p0(i64 8, ptr %9) #10
  call void @llvm.lifetime.start.p0(i64 8, ptr %10) #10
  call void @llvm.lifetime.start.p0(i64 4, ptr %11) #10
  %13 = load i64, ptr %7, align 8, !tbaa !27
  %14 = ashr i64 %13, 6
  store i64 %14, ptr %8, align 8, !tbaa !27
  %15 = load i64, ptr %7, align 8, !tbaa !27
  %16 = and i64 %15, 63
  %17 = trunc i64 %16 to i32
  store i32 %17, ptr %11, align 4, !tbaa !29
  %18 = load i64, ptr %8, align 8, !tbaa !27
  %19 = load i64, ptr %6, align 8, !tbaa !27
  %20 = icmp ult i64 %18, %19
  br i1 %20, label %21, label %26

21:                                               ; preds = %3
  %22 = load ptr, ptr %5, align 8, !tbaa !28
  %23 = load i64, ptr %8, align 8, !tbaa !27
  %24 = getelementptr inbounds nuw i64, ptr %22, i64 %23
  %25 = load i64, ptr %24, align 8, !tbaa !27
  store i64 %25, ptr %9, align 8, !tbaa !27
  br label %27

26:                                               ; preds = %3
  store i64 0, ptr %9, align 8, !tbaa !27
  br label %27

27:                                               ; preds = %26, %21
  %28 = load i32, ptr %11, align 4, !tbaa !29
  %29 = icmp eq i32 %28, 0
  br i1 %29, label %30, label %32

30:                                               ; preds = %27
  %31 = load i64, ptr %9, align 8, !tbaa !27
  store i64 %31, ptr %4, align 8
  store i32 1, ptr %12, align 4
  br label %55

32:                                               ; preds = %27
  %33 = load i64, ptr %8, align 8, !tbaa !27
  %34 = add i64 %33, 1
  store i64 %34, ptr %8, align 8, !tbaa !27
  %35 = load i64, ptr %8, align 8, !tbaa !27
  %36 = load i64, ptr %6, align 8, !tbaa !27
  %37 = icmp ult i64 %35, %36
  br i1 %37, label %38, label %43

38:                                               ; preds = %32
  %39 = load ptr, ptr %5, align 8, !tbaa !28
  %40 = load i64, ptr %8, align 8, !tbaa !27
  %41 = getelementptr inbounds nuw i64, ptr %39, i64 %40
  %42 = load i64, ptr %41, align 8, !tbaa !27
  store i64 %42, ptr %10, align 8, !tbaa !27
  br label %44

43:                                               ; preds = %32
  store i64 0, ptr %10, align 8, !tbaa !27
  br label %44

44:                                               ; preds = %43, %38
  %45 = load i64, ptr %9, align 8, !tbaa !27
  %46 = load i32, ptr %11, align 4, !tbaa !29
  %47 = zext i32 %46 to i64
  %48 = lshr i64 %45, %47
  %49 = load i64, ptr %10, align 8, !tbaa !27
  %50 = load i32, ptr %11, align 4, !tbaa !29
  %51 = sub i32 64, %50
  %52 = zext i32 %51 to i64
  %53 = shl i64 %49, %52
  %54 = or i64 %48, %53
  store i64 %54, ptr %4, align 8
  store i32 1, ptr %12, align 4
  br label %55

55:                                               ; preds = %44, %30
  call void @llvm.lifetime.end.p0(i64 4, ptr %11) #10
  call void @llvm.lifetime.end.p0(i64 8, ptr %10) #10
  call void @llvm.lifetime.end.p0(i64 8, ptr %9) #10
  call void @llvm.lifetime.end.p0(i64 8, ptr %8) #10
  %56 = load i64, ptr %4, align 8
  ret i64 %56
}

; Function Attrs: nounwind uwtable
define dso_local i32 @bf_get_int32(ptr noundef %0, ptr noundef %1, i32 noundef %2) #0 {
  %4 = alloca ptr, align 8
  %5 = alloca ptr, align 8
  %6 = alloca i32, align 4
  %7 = alloca i32, align 4
  %8 = alloca i32, align 4
  store ptr %0, ptr %4, align 8, !tbaa !74
  store ptr %1, ptr %5, align 8, !tbaa !12
  store i32 %2, ptr %6, align 4, !tbaa !29
  call void @llvm.lifetime.start.p0(i64 4, ptr %7) #10
  call void @llvm.lifetime.start.p0(i64 4, ptr %8) #10
  %9 = load ptr, ptr %5, align 8, !tbaa !12
  %10 = getelementptr inbounds nuw %struct.bf_t, ptr %9, i32 0, i32 2
  %11 = load i64, ptr %10, align 8, !tbaa !24
  %12 = icmp sge i64 %11, 9223372036854775806
  br i1 %12, label %13, label %31

13:                                               ; preds = %3
  store i32 1, ptr %8, align 4, !tbaa !29
  %14 = load i32, ptr %6, align 4, !tbaa !29
  %15 = and i32 %14, 1
  %16 = icmp ne i32 %15, 0
  br i1 %16, label %17, label %18

17:                                               ; preds = %13
  store i32 0, ptr %7, align 4, !tbaa !29
  br label %30

18:                                               ; preds = %13
  %19 = load ptr, ptr %5, align 8, !tbaa !12
  %20 = getelementptr inbounds nuw %struct.bf_t, ptr %19, i32 0, i32 2
  %21 = load i64, ptr %20, align 8, !tbaa !24
  %22 = icmp eq i64 %21, 9223372036854775806
  br i1 %22, label %23, label %28

23:                                               ; preds = %18
  %24 = load ptr, ptr %5, align 8, !tbaa !12
  %25 = getelementptr inbounds nuw %struct.bf_t, ptr %24, i32 0, i32 1
  %26 = load i32, ptr %25, align 8, !tbaa !23
  %27 = add i32 2147483647, %26
  store i32 %27, ptr %7, align 4, !tbaa !29
  br label %29

28:                                               ; preds = %18
  store i32 2147483647, ptr %7, align 4, !tbaa !29
  br label %29

29:                                               ; preds = %28, %23
  br label %30

30:                                               ; preds = %29, %17
  br label %126

31:                                               ; preds = %3
  %32 = load ptr, ptr %5, align 8, !tbaa !12
  %33 = getelementptr inbounds nuw %struct.bf_t, ptr %32, i32 0, i32 2
  %34 = load i64, ptr %33, align 8, !tbaa !24
  %35 = icmp sle i64 %34, 0
  br i1 %35, label %36, label %37

36:                                               ; preds = %31
  store i32 0, ptr %7, align 4, !tbaa !29
  store i32 0, ptr %8, align 4, !tbaa !29
  br label %125

37:                                               ; preds = %31
  %38 = load ptr, ptr %5, align 8, !tbaa !12
  %39 = getelementptr inbounds nuw %struct.bf_t, ptr %38, i32 0, i32 2
  %40 = load i64, ptr %39, align 8, !tbaa !24
  %41 = icmp sle i64 %40, 31
  br i1 %41, label %42, label %66

42:                                               ; preds = %37
  %43 = load ptr, ptr %5, align 8, !tbaa !12
  %44 = getelementptr inbounds nuw %struct.bf_t, ptr %43, i32 0, i32 4
  %45 = load ptr, ptr %44, align 8, !tbaa !26
  %46 = load ptr, ptr %5, align 8, !tbaa !12
  %47 = getelementptr inbounds nuw %struct.bf_t, ptr %46, i32 0, i32 3
  %48 = load i64, ptr %47, align 8, !tbaa !25
  %49 = sub i64 %48, 1
  %50 = getelementptr inbounds nuw i64, ptr %45, i64 %49
  %51 = load i64, ptr %50, align 8, !tbaa !27
  %52 = load ptr, ptr %5, align 8, !tbaa !12
  %53 = getelementptr inbounds nuw %struct.bf_t, ptr %52, i32 0, i32 2
  %54 = load i64, ptr %53, align 8, !tbaa !24
  %55 = sub i64 64, %54
  %56 = lshr i64 %51, %55
  %57 = trunc i64 %56 to i32
  store i32 %57, ptr %7, align 4, !tbaa !29
  %58 = load ptr, ptr %5, align 8, !tbaa !12
  %59 = getelementptr inbounds nuw %struct.bf_t, ptr %58, i32 0, i32 1
  %60 = load i32, ptr %59, align 8, !tbaa !23
  %61 = icmp ne i32 %60, 0
  br i1 %61, label %62, label %65

62:                                               ; preds = %42
  %63 = load i32, ptr %7, align 4, !tbaa !29
  %64 = sub i32 0, %63
  store i32 %64, ptr %7, align 4, !tbaa !29
  br label %65

65:                                               ; preds = %62, %42
  store i32 0, ptr %8, align 4, !tbaa !29
  br label %124

66:                                               ; preds = %37
  %67 = load i32, ptr %6, align 4, !tbaa !29
  %68 = and i32 %67, 1
  %69 = icmp ne i32 %68, 0
  br i1 %69, label %98, label %70

70:                                               ; preds = %66
  store i32 1, ptr %8, align 4, !tbaa !29
  %71 = load ptr, ptr %5, align 8, !tbaa !12
  %72 = getelementptr inbounds nuw %struct.bf_t, ptr %71, i32 0, i32 1
  %73 = load i32, ptr %72, align 8, !tbaa !23
  %74 = icmp ne i32 %73, 0
  br i1 %74, label %75, label %96

75:                                               ; preds = %70
  store i32 -2147483648, ptr %7, align 4, !tbaa !29
  %76 = load ptr, ptr %5, align 8, !tbaa !12
  %77 = getelementptr inbounds nuw %struct.bf_t, ptr %76, i32 0, i32 2
  %78 = load i64, ptr %77, align 8, !tbaa !24
  %79 = icmp eq i64 %78, 32
  br i1 %79, label %80, label %95

80:                                               ; preds = %75
  %81 = load ptr, ptr %5, align 8, !tbaa !12
  %82 = getelementptr inbounds nuw %struct.bf_t, ptr %81, i32 0, i32 4
  %83 = load ptr, ptr %82, align 8, !tbaa !26
  %84 = load ptr, ptr %5, align 8, !tbaa !12
  %85 = getelementptr inbounds nuw %struct.bf_t, ptr %84, i32 0, i32 3
  %86 = load i64, ptr %85, align 8, !tbaa !25
  %87 = sub i64 %86, 1
  %88 = getelementptr inbounds nuw i64, ptr %83, i64 %87
  %89 = load i64, ptr %88, align 8, !tbaa !27
  %90 = lshr i64 %89, 32
  %91 = load i32, ptr %7, align 4, !tbaa !29
  %92 = zext i32 %91 to i64
  %93 = icmp eq i64 %90, %92
  br i1 %93, label %94, label %95

94:                                               ; preds = %80
  store i32 0, ptr %8, align 4, !tbaa !29
  br label %95

95:                                               ; preds = %94, %80, %75
  br label %97

96:                                               ; preds = %70
  store i32 2147483647, ptr %7, align 4, !tbaa !29
  br label %97

97:                                               ; preds = %96, %95
  br label %123

98:                                               ; preds = %66
  %99 = load ptr, ptr %5, align 8, !tbaa !12
  %100 = getelementptr inbounds nuw %struct.bf_t, ptr %99, i32 0, i32 4
  %101 = load ptr, ptr %100, align 8, !tbaa !26
  %102 = load ptr, ptr %5, align 8, !tbaa !12
  %103 = getelementptr inbounds nuw %struct.bf_t, ptr %102, i32 0, i32 3
  %104 = load i64, ptr %103, align 8, !tbaa !25
  %105 = load ptr, ptr %5, align 8, !tbaa !12
  %106 = getelementptr inbounds nuw %struct.bf_t, ptr %105, i32 0, i32 3
  %107 = load i64, ptr %106, align 8, !tbaa !25
  %108 = mul i64 %107, 64
  %109 = load ptr, ptr %5, align 8, !tbaa !12
  %110 = getelementptr inbounds nuw %struct.bf_t, ptr %109, i32 0, i32 2
  %111 = load i64, ptr %110, align 8, !tbaa !24
  %112 = sub i64 %108, %111
  %113 = call i64 @get_bits(ptr noundef %101, i64 noundef %104, i64 noundef %112)
  %114 = trunc i64 %113 to i32
  store i32 %114, ptr %7, align 4, !tbaa !29
  %115 = load ptr, ptr %5, align 8, !tbaa !12
  %116 = getelementptr inbounds nuw %struct.bf_t, ptr %115, i32 0, i32 1
  %117 = load i32, ptr %116, align 8, !tbaa !23
  %118 = icmp ne i32 %117, 0
  br i1 %118, label %119, label %122

119:                                              ; preds = %98
  %120 = load i32, ptr %7, align 4, !tbaa !29
  %121 = sub i32 0, %120
  store i32 %121, ptr %7, align 4, !tbaa !29
  br label %122

122:                                              ; preds = %119, %98
  store i32 0, ptr %8, align 4, !tbaa !29
  br label %123

123:                                              ; preds = %122, %97
  br label %124

124:                                              ; preds = %123, %65
  br label %125

125:                                              ; preds = %124, %36
  br label %126

126:                                              ; preds = %125, %30
  %127 = load i32, ptr %7, align 4, !tbaa !29
  %128 = load ptr, ptr %4, align 8, !tbaa !74
  store i32 %127, ptr %128, align 4, !tbaa !29
  %129 = load i32, ptr %8, align 4, !tbaa !29
  call void @llvm.lifetime.end.p0(i64 4, ptr %8) #10
  call void @llvm.lifetime.end.p0(i64 4, ptr %7) #10
  ret i32 %129
}