; Function Attrs: mustprogress nofree norecurse nosync nounwind willreturn memory(read, argmem: readwrite, inaccessiblemem: none) uwtable
define dso_local range(i32 0, 2) i32 @bf_get_int32(ptr noundef writeonly captures(none) initializes((0, 4)) %0, ptr noundef readonly captures(none) %1, i32 noundef %2) local_unnamed_addr #11 {
  %4 = getelementptr inbounds nuw i8, ptr %1, i64 16
  %5 = load i64, ptr %4, align 8, !tbaa !31
  %6 = icmp sgt i64 %5, 9223372036854775805
  br i1 %6, label %7, label %15

7:                                                ; preds = %3
  %8 = and i32 %2, 1
  %.not31 = icmp eq i32 %8, 0
  br i1 %.not31, label %9, label %82

9:                                                ; preds = %7
  %10 = icmp eq i64 %5, 9223372036854775806
  br i1 %10, label %11, label %82

11:                                               ; preds = %9
  %12 = getelementptr inbounds nuw i8, ptr %1, i64 8
  %13 = load i32, ptr %12, align 8, !tbaa !30
  %14 = add i32 %13, 2147483647
  br label %82

15:                                               ; preds = %3
  %16 = icmp slt i64 %5, 1
  br i1 %16, label %82, label %17

17:                                               ; preds = %15
  %18 = icmp samesign ult i64 %5, 32
  br i1 %18, label %19, label %33

19:                                               ; preds = %17
  %20 = getelementptr inbounds nuw i8, ptr %1, i64 32
  %21 = load ptr, ptr %20, align 8, !tbaa !29
  %22 = getelementptr inbounds nuw i8, ptr %1, i64 24
  %23 = load i64, ptr %22, align 8, !tbaa !32
  %24 = getelementptr i64, ptr %21, i64 %23
  %25 = getelementptr i8, ptr %24, i64 -8
  %26 = load i64, ptr %25, align 8, !tbaa !33
  %27 = sub nuw nsw i64 64, %5
  %28 = lshr i64 %26, %27
  %29 = trunc nuw nsw i64 %28 to i32
  %30 = getelementptr inbounds nuw i8, ptr %1, i64 8
  %31 = load i32, ptr %30, align 8, !tbaa !30
  %.not30 = icmp eq i32 %31, 0
  %32 = sub nsw i32 0, %29
  %spec.select = select i1 %.not30, i32 %29, i32 %32
  br label %82

33:                                               ; preds = %17
  %34 = and i32 %2, 1
  %.not = icmp eq i32 %34, 0
  br i1 %.not, label %35, label %49

35:                                               ; preds = %33
  %36 = getelementptr inbounds nuw i8, ptr %1, i64 8
  %37 = load i32, ptr %36, align 8, !tbaa !30
  %.not28 = icmp eq i32 %37, 0
  br i1 %.not28, label %82, label %38

38:                                               ; preds = %35
  %39 = icmp eq i64 %5, 32
  br i1 %39, label %40, label %82

40:                                               ; preds = %38
  %41 = getelementptr inbounds nuw i8, ptr %1, i64 32
  %42 = load ptr, ptr %41, align 8, !tbaa !29
  %43 = getelementptr inbounds nuw i8, ptr %1, i64 24
  %44 = load i64, ptr %43, align 8, !tbaa !32
  %45 = getelementptr i64, ptr %42, i64 %44
  %46 = getelementptr i8, ptr %45, i64 -8
  %47 = load i64, ptr %46, align 8, !tbaa !33
  %48 = icmp sgt i64 %47, -9223372032559808513
  %spec.select32 = zext i1 %48 to i32
  br label %82

49:                                               ; preds = %33
  %50 = getelementptr inbounds nuw i8, ptr %1, i64 32
  %51 = load ptr, ptr %50, align 8, !tbaa !29
  %52 = getelementptr inbounds nuw i8, ptr %1, i64 24
  %53 = load i64, ptr %52, align 8, !tbaa !32
  %54 = shl i64 %53, 6
  %55 = sub i64 %54, %5
  %56 = ashr i64 %55, 6
  %57 = trunc i64 %55 to i32
  %58 = and i32 %57, 63
  %59 = icmp ult i64 %56, %53
  br i1 %59, label %60, label %63

60:                                               ; preds = %49
  %61 = getelementptr inbounds nuw i64, ptr %51, i64 %56
  %62 = load i64, ptr %61, align 8, !tbaa !33
  br label %63

63:                                               ; preds = %60, %49
  %.018.i = phi i64 [ %62, %60 ], [ 0, %49 ]
  %64 = icmp eq i32 %58, 0
  br i1 %64, label %get_bits.exit, label %65

65:                                               ; preds = %63
  %66 = add nsw i64 %56, 1
  %67 = icmp ult i64 %66, %53
  br i1 %67, label %68, label %71

68:                                               ; preds = %65
  %69 = getelementptr inbounds nuw i64, ptr %51, i64 %66
  %70 = load i64, ptr %69, align 8, !tbaa !33
  br label %71

71:                                               ; preds = %68, %65
  %.017.i = phi i64 [ %70, %68 ], [ 0, %65 ]
  %72 = and i64 %55, 63
  %73 = lshr i64 %.018.i, %72
  %74 = sub nuw nsw i32 64, %58
  %75 = zext nneg i32 %74 to i64
  %76 = shl i64 %.017.i, %75
  %77 = or i64 %76, %73
  br label %get_bits.exit

get_bits.exit:                                    ; preds = %63, %71
  %.0.i = phi i64 [ %77, %71 ], [ %.018.i, %63 ]
  %78 = trunc i64 %.0.i to i32
  %79 = getelementptr inbounds nuw i8, ptr %1, i64 8
  %80 = load i32, ptr %79, align 8, !tbaa !30
  %.not29 = icmp eq i32 %80, 0
  %81 = sub i32 0, %78
  %spec.select33 = select i1 %.not29, i32 %78, i32 %81
  br label %82

82:                                               ; preds = %40, %35, %15, %9, %7, %get_bits.exit, %38, %19, %11
  %.025 = phi i32 [ %14, %11 ], [ %spec.select, %19 ], [ %spec.select33, %get_bits.exit ], [ -2147483648, %38 ], [ 0, %7 ], [ 2147483647, %9 ], [ 0, %15 ], [ -2147483648, %40 ], [ 2147483647, %35 ]
  %.0 = phi i32 [ 1, %11 ], [ 0, %19 ], [ 0, %get_bits.exit ], [ 1, %38 ], [ 1, %7 ], [ 1, %9 ], [ 0, %15 ], [ %spec.select32, %40 ], [ 1, %35 ]
  store i32 %.025, ptr %0, align 4, !tbaa !36
  ret i32 %.0
}